; Function Attrs: nounwind uwtable
define internal fastcc void @extents_abandon_vm(ptr noundef %0, ptr noundef readonly captures(none) %1, ptr noundef readonly captures(none) %2, ptr noundef readonly captures(none) %3, ptr noundef %4) unnamed_addr #1 {
atomic_fetch_add_zu.exit:
  %5 = getelementptr i8, ptr %4, i64 16
  %.val16 = load i64, ptr %5, align 8, !tbaa !35
  %6 = and i64 %.val16, -4096
  %7 = getelementptr inbounds nuw i8, ptr %1, i64 62224
  %8 = load ptr, ptr %7, align 8, !tbaa !43
  %9 = getelementptr inbounds nuw i8, ptr %8, i64 64
  %10 = atomicrmw add ptr %9, i64 %6 monotonic, align 8
  %11 = getelementptr inbounds nuw i8, ptr %3, i64 19424
  %12 = load i32, ptr %11, align 8, !tbaa !34
  %13 = icmp eq i32 %12, 1
  br i1 %13, label %14, label %19

14:                                               ; preds = %atomic_fetch_add_zu.exit
  %15 = tail call fastcc zeroext i1 @extent_purge_lazy_impl(ptr noundef %0, ptr noundef %2, ptr noundef nonnull %4, i64 noundef 0, i64 noundef %6)
  br i1 %15, label %16, label %19

16:                                               ; preds = %14
  %.val = load i64, ptr %5, align 8, !tbaa !35
  %17 = and i64 %.val, -4096
  %18 = tail call fastcc zeroext i1 @extent_purge_forced_impl(ptr noundef %0, ptr noundef %2, ptr noundef nonnull %4, i64 noundef 0, i64 noundef %17)
  br label %19

19:                                               ; preds = %14, %16, %atomic_fetch_add_zu.exit
  %20 = getelementptr inbounds nuw i8, ptr %1, i64 58392
  %21 = load ptr, ptr %20, align 8, !tbaa !44
  tail call void @duckdb_je_edata_cache_put(ptr noundef %0, ptr noundef %21, ptr noundef nonnull %4) #9
  ret void
}